; Function Attrs: mustprogress uwtable
define hidden void @_ZN4lean15projection_infoC2ERKNS_4nameEjjb(ptr noundef nonnull writeonly align 8 captures(none) dereferenceable(8) %0, ptr noundef nonnull readonly align 8 captures(none) dereferenceable(8) %1, i32 noundef %2, i32 noundef %3, i1 noundef zeroext %4) unnamed_addr #0 align 2 personality ptr @__gxx_personality_v0 {
  %6 = alloca %"class.lean::nat", align 8
  %7 = alloca %"class.lean::nat", align 8
  %8 = zext i1 %4 to i8
  %9 = load ptr, ptr %1, align 8, !tbaa !3
  %10 = ptrtoint ptr %9 to i64
  %11 = and i64 %10, 1
  %.not.i.i = icmp eq i64 %11, 0
  br i1 %.not.i.i, label %12, label %18

12:                                               ; preds = %5
  %.val.i.i.i = load i32, ptr %9, align 4, !tbaa !8
  %13 = icmp sgt i32 %.val.i.i.i, 0
  br i1 %13, label %14, label %16, !prof !11

14:                                               ; preds = %12
  %15 = add nuw nsw i32 %.val.i.i.i, 1
  store i32 %15, ptr %9, align 4, !tbaa !8
  br label %18

16:                                               ; preds = %12
  %.not.i.i.i = icmp eq i32 %.val.i.i.i, 0
  br i1 %.not.i.i.i, label %18, label %17

17:                                               ; preds = %16
  tail call void @lean_inc_ref_cold(ptr noundef nonnull %9)
  %.pre.i = load ptr, ptr %1, align 8, !tbaa !3
  br label %18

18:                                               ; preds = %17, %16, %14, %5
  %19 = phi ptr [ %9, %5 ], [ %9, %14 ], [ %9, %16 ], [ %.pre.i, %17 ]
  call void @llvm.lifetime.start.p0(i64 8, ptr nonnull %6) #6
  %20 = zext i32 %2 to i64
  %21 = shl nuw nsw i64 %20, 1
  %22 = or disjoint i64 %21, 1
  %23 = inttoptr i64 %22 to ptr
  store ptr %23, ptr %6, align 8, !tbaa !3
  call void @llvm.lifetime.start.p0(i64 8, ptr nonnull %7) #6
  %24 = zext i32 %3 to i64
  %25 = shl nuw nsw i64 %24, 1
  %26 = or disjoint i64 %25, 1
  %27 = inttoptr i64 %26 to ptr
  store ptr %27, ptr %7, align 8, !tbaa !3
  %28 = invoke ptr @lean_mk_projection_info(ptr noundef %19, ptr noundef nonnull %23, ptr noundef nonnull %27, i8 noundef zeroext %8)
          to label %_ZN4lean10object_refD2Ev.exit25 unwind label %29

_ZN4lean10object_refD2Ev.exit25:                  ; preds = %18
  store ptr %28, ptr %0, align 8, !tbaa !3
  call void @llvm.lifetime.end.p0(i64 8, ptr nonnull %7) #6
  call void @llvm.lifetime.end.p0(i64 8, ptr nonnull %6) #6
  ret void

29:                                               ; preds = %18
  %30 = landingpad { ptr, i32 }
          cleanup
  call void @_ZN4lean10object_refD2Ev(ptr noundef nonnull align 8 dereferenceable(8) %7) #6
  call void @llvm.lifetime.end.p0(i64 8, ptr nonnull %7) #6
  call void @_ZN4lean10object_refD2Ev(ptr noundef nonnull align 8 dereferenceable(8) %6) #6
  call void @llvm.lifetime.end.p0(i64 8, ptr nonnull %6) #6
  resume { ptr, i32 } %30
}